; Function Attrs: nounwind uwtable
define internal i32 @dct_sad16_c(ptr noundef readonly captures(none) %0, ptr noundef %1, ptr noundef %2, i64 noundef %3, i32 noundef %4) #7 {
  %6 = alloca [64 x i16], align 16
  %7 = alloca [64 x i16], align 16
  %8 = alloca [64 x i16], align 16
  %9 = alloca [64 x i16], align 16
  call void @llvm.lifetime.start.p0(i64 128, ptr nonnull %9) #12
  %10 = getelementptr inbounds nuw i8, ptr %0, i64 5016
  %11 = load ptr, ptr %10, align 8, !tbaa !35
  call void %11(ptr noundef nonnull %9, ptr noundef %1, ptr noundef %2, i64 noundef %3) #12
  %12 = getelementptr inbounds nuw i8, ptr %0, i64 4904
  %13 = load ptr, ptr %12, align 8, !tbaa !71
  call void %13(ptr noundef nonnull %9) #12
  %14 = getelementptr inbounds nuw i8, ptr %0, i64 6968
  %15 = load ptr, ptr %14, align 8, !tbaa !72
  %16 = call i32 %15(ptr noundef nonnull %9) #12
  call void @llvm.lifetime.end.p0(i64 128, ptr nonnull %9) #12
  %17 = getelementptr inbounds nuw i8, ptr %1, i64 8
  %18 = getelementptr inbounds nuw i8, ptr %2, i64 8
  call void @llvm.lifetime.start.p0(i64 128, ptr nonnull %8) #12
  %19 = load ptr, ptr %10, align 8, !tbaa !35
  call void %19(ptr noundef nonnull %8, ptr noundef nonnull %17, ptr noundef nonnull %18, i64 noundef %3) #12
  %20 = load ptr, ptr %12, align 8, !tbaa !71
  call void %20(ptr noundef nonnull %8) #12
  %21 = load ptr, ptr %14, align 8, !tbaa !72
  %22 = call i32 %21(ptr noundef nonnull %8) #12
  call void @llvm.lifetime.end.p0(i64 128, ptr nonnull %8) #12
  %23 = add nsw i32 %22, %16
  %24 = icmp eq i32 %4, 16
  br i1 %24, label %25, label %41

25:                                               ; preds = %5
  %26 = shl nsw i64 %3, 3
  %27 = getelementptr inbounds i8, ptr %1, i64 %26
  %28 = getelementptr inbounds i8, ptr %2, i64 %26
  call void @llvm.lifetime.start.p0(i64 128, ptr nonnull %7) #12
  %29 = load ptr, ptr %10, align 8, !tbaa !35
  call void %29(ptr noundef nonnull %7, ptr noundef %27, ptr noundef %28, i64 noundef %3) #12
  %30 = load ptr, ptr %12, align 8, !tbaa !71
  call void %30(ptr noundef nonnull %7) #12
  %31 = load ptr, ptr %14, align 8, !tbaa !72
  %32 = call i32 %31(ptr noundef nonnull %7) #12
  call void @llvm.lifetime.end.p0(i64 128, ptr nonnull %7) #12
  %33 = add nsw i32 %32, %23
  %34 = getelementptr inbounds nuw i8, ptr %27, i64 8
  %35 = getelementptr inbounds nuw i8, ptr %28, i64 8
  call void @llvm.lifetime.start.p0(i64 128, ptr nonnull %6) #12
  %36 = load ptr, ptr %10, align 8, !tbaa !35
  call void %36(ptr noundef nonnull %6, ptr noundef nonnull %34, ptr noundef nonnull %35, i64 noundef %3) #12
  %37 = load ptr, ptr %12, align 8, !tbaa !71
  call void %37(ptr noundef nonnull %6) #12
  %38 = load ptr, ptr %14, align 8, !tbaa !72
  %39 = call i32 %38(ptr noundef nonnull %6) #12
  call void @llvm.lifetime.end.p0(i64 128, ptr nonnull %6) #12
  %40 = add nsw i32 %33, %39
  br label %41

41:                                               ; preds = %25, %5
  %.0 = phi i32 [ %40, %25 ], [ %23, %5 ]
  ret i32 %.0
}